; Function Attrs: nounwind uwtable
define range(i32 -30, 1) i32 @IDAQuadSStolerances(ptr noundef captures(address_is_null) %0, double noundef %1, double noundef %2) local_unnamed_addr #0 {
  %4 = icmp eq ptr %0, null
  br i1 %4, label %5, label %6

5:                                                ; preds = %3
  tail call void (ptr, i32, i32, ptr, ptr, ptr, ...) @IDAProcessError(ptr noundef null, i32 noundef -20, i32 noundef 1171, ptr noundef nonnull @__func__.IDAQuadSStolerances, ptr noundef nonnull @.str, ptr noundef nonnull @.str.3)
  br label %24

6:                                                ; preds = %3
  %7 = getelementptr inbounds nuw i8, ptr %0, i64 1704
  %8 = load i32, ptr %7, align 8, !tbaa !162
  %9 = icmp eq i32 %8, 0
  br i1 %9, label %10, label %11

10:                                               ; preds = %6
  tail call void (ptr, i32, i32, ptr, ptr, ptr, ...) @IDAProcessError(ptr noundef nonnull %0, i32 noundef -30, i32 noundef 1179, ptr noundef nonnull @__func__.IDAQuadSStolerances, ptr noundef nonnull @.str, ptr noundef nonnull @.str.12)
  br label %24

11:                                               ; preds = %6
  %12 = fcmp olt double %1, 0.000000e+00
  br i1 %12, label %13, label %14

13:                                               ; preds = %11
  tail call void (ptr, i32, i32, ptr, ptr, ptr, ...) @IDAProcessError(ptr noundef nonnull %0, i32 noundef -22, i32 noundef 1187, ptr noundef nonnull @__func__.IDAQuadSStolerances, ptr noundef nonnull @.str, ptr noundef nonnull @.str.13)
  br label %24

14:                                               ; preds = %11
  %15 = fcmp olt double %2, 0.000000e+00
  br i1 %15, label %16, label %17

16:                                               ; preds = %14
  tail call void (ptr, i32, i32, ptr, ptr, ptr, ...) @IDAProcessError(ptr noundef nonnull %0, i32 noundef -22, i32 noundef 1194, ptr noundef nonnull @__func__.IDAQuadSStolerances, ptr noundef nonnull @.str, ptr noundef nonnull @.str.14)
  br label %24

17:                                               ; preds = %14
  %18 = getelementptr inbounds nuw i8, ptr %0, i64 124
  store i32 1, ptr %18, align 4, !tbaa !43
  %19 = getelementptr inbounds nuw i8, ptr %0, i64 128
  store double %1, ptr %19, align 8, !tbaa !163
  %20 = getelementptr inbounds nuw i8, ptr %0, i64 136
  store double %2, ptr %20, align 8, !tbaa !164
  %21 = fcmp oeq double %2, 0.000000e+00
  %22 = zext i1 %21 to i32
  %23 = getelementptr inbounds nuw i8, ptr %0, i64 152
  store i32 %22, ptr %23, align 8, !tbaa !44
  br label %24

24:                                               ; preds = %17, %16, %13, %10, %5
  %.0 = phi i32 [ -20, %5 ], [ -30, %10 ], [ -22, %13 ], [ -22, %16 ], [ 0, %17 ]
  ret i32 %.0
}